target datalayout = "e-m:e-p270:32:32-p271:32:32-p272:64:64-i64:64-i128:128-f80:128-n8:16:32:64-S128"
target triple = "x86_64-pc-linux-gnu"

%"class.llvm::SmallVectorBase" = type { ptr, i32, i32 }
%"class.std::__cxx11::basic_string" = type { %"struct.std::__cxx11::basic_string<char>::_Alloc_hider", i64, %union.anon }
%"struct.std::__cxx11::basic_string<char>::_Alloc_hider" = type { ptr }
%union.anon = type { i64, [8 x i8] }
%"class.llvm::Twine" = type <{ %"union.llvm::Twine::Child", %"union.llvm::Twine::Child", i8, i8, [6 x i8] }>
%"union.llvm::Twine::Child" = type { %struct.anon }
%struct.anon = type { ptr, i64 }
%"class.llvm::Module" = type <{ ptr, %"class.llvm::SymbolTableList", %"class.llvm::SymbolTableList.23", %"class.llvm::SymbolTableList.32", %"class.llvm::SymbolTableList.41", %"class.llvm::iplist", %"class.std::__cxx11::basic_string", %"class.std::unique_ptr.60", %"class.llvm::StringMap.68", %"class.std::unique_ptr.69", %"class.std::unique_ptr.77", %"class.std::__cxx11::basic_string", %"class.std::__cxx11::basic_string", %"class.std::__cxx11::basic_string", %"class.llvm::StringMap.85", %"class.llvm::DataLayout", %"class.llvm::StringMap.111", %"class.llvm::DenseMap.112", ptr, i8, [7 x i8] }>
%"class.llvm::SymbolTableList" = type { %"class.llvm::iplist_impl" }
%"class.llvm::iplist_impl" = type { %"class.llvm::simple_ilist" }
%"class.llvm::simple_ilist" = type { %"class.llvm::ilist_sentinel" }
%"class.llvm::ilist_sentinel" = type { %"class.llvm::ilist_node_impl" }
%"class.llvm::ilist_node_impl" = type { %"class.llvm::ilist_node_base" }
%"class.llvm::ilist_node_base" = type { %"class.llvm::ilist_detail::node_base_prevnext" }
%"class.llvm::ilist_detail::node_base_prevnext" = type { ptr, ptr }
%"class.llvm::SymbolTableList.23" = type { %"class.llvm::iplist_impl.24" }
%"class.llvm::iplist_impl.24" = type { %"class.llvm::simple_ilist.27" }
%"class.llvm::simple_ilist.27" = type { %"class.llvm::ilist_sentinel.29" }
%"class.llvm::ilist_sentinel.29" = type { %"class.llvm::ilist_node_impl.30" }
%"class.llvm::ilist_node_impl.30" = type { %"class.llvm::ilist_node_base" }
%"class.llvm::SymbolTableList.32" = type { %"class.llvm::iplist_impl.33" }
%"class.llvm::iplist_impl.33" = type { %"class.llvm::simple_ilist.36" }
%"class.llvm::simple_ilist.36" = type { %"class.llvm::ilist_sentinel.38" }
%"class.llvm::ilist_sentinel.38" = type { %"class.llvm::ilist_node_impl.39" }
%"class.llvm::ilist_node_impl.39" = type { %"class.llvm::ilist_node_base" }
%"class.llvm::SymbolTableList.41" = type { %"class.llvm::iplist_impl.42" }
%"class.llvm::iplist_impl.42" = type { %"class.llvm::simple_ilist.45" }
%"class.llvm::simple_ilist.45" = type { %"class.llvm::ilist_sentinel.47" }
%"class.llvm::ilist_sentinel.47" = type { %"class.llvm::ilist_node_impl.48" }
%"class.llvm::ilist_node_impl.48" = type { %"class.llvm::ilist_node_base" }
%"class.llvm::iplist" = type { %"class.llvm::iplist_impl.50" }
%"class.llvm::iplist_impl.50" = type { %"class.llvm::simple_ilist.52" }
%"class.llvm::simple_ilist.52" = type { %"class.llvm::ilist_sentinel.54" }
%"class.llvm::ilist_sentinel.54" = type { %"class.llvm::ilist_node_impl.55" }
%"class.llvm::ilist_node_impl.55" = type { %"class.llvm::ilist_node_base" }
%"class.std::unique_ptr.60" = type { %"struct.std::__uniq_ptr_data.61" }
%"struct.std::__uniq_ptr_data.61" = type { %"class.std::__uniq_ptr_impl.62" }
%"class.std::__uniq_ptr_impl.62" = type { %"class.std::tuple.63" }
%"class.std::tuple.63" = type { %"struct.std::_Tuple_impl.64" }
%"struct.std::_Tuple_impl.64" = type { %"struct.std::_Head_base.67" }
%"struct.std::_Head_base.67" = type { ptr }
%"class.llvm::StringMap.68" = type { %"class.llvm::StringMapImpl" }
%"class.llvm::StringMapImpl" = type { ptr, i32, i32, i32, i32 }
%"class.std::unique_ptr.69" = type { %"struct.std::__uniq_ptr_data.70" }
%"struct.std::__uniq_ptr_data.70" = type { %"class.std::__uniq_ptr_impl.71" }
%"class.std::__uniq_ptr_impl.71" = type { %"class.std::tuple.72" }
%"class.std::tuple.72" = type { %"struct.std::_Tuple_impl.73" }
%"struct.std::_Tuple_impl.73" = type { %"struct.std::_Head_base.76" }
%"struct.std::_Head_base.76" = type { ptr }
%"class.std::unique_ptr.77" = type { %"struct.std::__uniq_ptr_data.78" }
%"struct.std::__uniq_ptr_data.78" = type { %"class.std::__uniq_ptr_impl.79" }
%"class.std::__uniq_ptr_impl.79" = type { %"class.std::tuple.80" }
%"class.std::tuple.80" = type { %"struct.std::_Tuple_impl.81" }
%"struct.std::_Tuple_impl.81" = type { %"struct.std::_Head_base.84" }
%"struct.std::_Head_base.84" = type { ptr }
%"class.llvm::StringMap.85" = type { %"class.llvm::StringMapImpl" }
%"class.llvm::DataLayout" = type { i8, i32, i32, i32, %"struct.llvm::MaybeAlign", %"struct.llvm::MaybeAlign", i32, i32, %"class.llvm::SmallVector.86", %"class.llvm::SmallVector.92", %"class.llvm::SmallVector.97", %"class.llvm::SmallVector.99", %"class.llvm::SmallVector.101", %"class.std::__cxx11::basic_string", %"struct.llvm::Align", %"struct.llvm::Align", ptr, %"class.llvm::SmallVector.106" }
%"struct.llvm::MaybeAlign" = type { %"class.std::optional" }
%"class.std::optional" = type { %"struct.std::_Optional_base" }
%"struct.std::_Optional_base" = type { %"struct.std::_Optional_payload" }
%"struct.std::_Optional_payload" = type { %"struct.std::_Optional_payload_base" }
%"struct.std::_Optional_payload_base" = type { %"union.std::_Optional_payload_base<llvm::Align>::_Storage", i8 }
%"union.std::_Optional_payload_base<llvm::Align>::_Storage" = type { %"struct.std::_Optional_payload_base<llvm::Align>::_Empty_byte" }
%"struct.std::_Optional_payload_base<llvm::Align>::_Empty_byte" = type { i8 }
%"class.llvm::SmallVector.86" = type { %"class.llvm::SmallVectorImpl.87", %"struct.llvm::SmallVectorStorage.91" }
%"class.llvm::SmallVectorImpl.87" = type { %"class.llvm::SmallVectorTemplateBase.88" }
%"class.llvm::SmallVectorTemplateBase.88" = type { %"class.llvm::SmallVectorTemplateCommon.89" }
%"class.llvm::SmallVectorTemplateCommon.89" = type { %"class.llvm::SmallVectorBase.90" }
%"class.llvm::SmallVectorBase.90" = type { ptr, i64, i64 }
%"struct.llvm::SmallVectorStorage.91" = type { [8 x i8] }
%"class.llvm::SmallVector.92" = type { %"class.llvm::SmallVectorImpl.93", %"struct.llvm::SmallVectorStorage.96" }
%"class.llvm::SmallVectorImpl.93" = type { %"class.llvm::SmallVectorTemplateBase.94" }
%"class.llvm::SmallVectorTemplateBase.94" = type { %"class.llvm::SmallVectorTemplateCommon.95" }
%"class.llvm::SmallVectorTemplateCommon.95" = type { %"class.llvm::SmallVectorBase" }
%"struct.llvm::SmallVectorStorage.96" = type { [48 x i8] }
%"class.llvm::SmallVector.97" = type { %"class.llvm::SmallVectorImpl.93", %"struct.llvm::SmallVectorStorage.98" }
%"struct.llvm::SmallVectorStorage.98" = type { [32 x i8] }
%"class.llvm::SmallVector.99" = type { %"class.llvm::SmallVectorImpl.93", %"struct.llvm::SmallVectorStorage.100" }
%"struct.llvm::SmallVectorStorage.100" = type { [80 x i8] }
%"class.llvm::SmallVector.101" = type { %"class.llvm::SmallVectorImpl.102", %"struct.llvm::SmallVectorStorage.105" }
%"class.llvm::SmallVectorImpl.102" = type { %"class.llvm::SmallVectorTemplateBase.103" }
%"class.llvm::SmallVectorTemplateBase.103" = type { %"class.llvm::SmallVectorTemplateCommon.104" }
%"class.llvm::SmallVectorTemplateCommon.104" = type { %"class.llvm::SmallVectorBase" }
%"struct.llvm::SmallVectorStorage.105" = type { [128 x i8] }
%"struct.llvm::Align" = type { i8 }
%"class.llvm::SmallVector.106" = type { %"class.llvm::SmallVectorImpl.107", %"struct.llvm::SmallVectorStorage.110" }
%"class.llvm::SmallVectorImpl.107" = type { %"class.llvm::SmallVectorTemplateBase.108" }
%"class.llvm::SmallVectorTemplateBase.108" = type { %"class.llvm::SmallVectorTemplateCommon.109" }
%"class.llvm::SmallVectorTemplateCommon.109" = type { %"class.llvm::SmallVectorBase" }
%"struct.llvm::SmallVectorStorage.110" = type { [32 x i8] }
%"class.llvm::StringMap.111" = type { %"class.llvm::StringMapImpl" }
%"class.llvm::DenseMap.112" = type <{ ptr, i32, i32, i32, [4 x i8] }>

@.str.15 = private unnamed_addr constant [1 x i8] zeroinitializer, align 1

; Function Attrs: mustprogress nounwind uwtable
define linkonce_odr hidden noundef ptr @_ZN4llvm11PointerType9getUnqualERNS_11LLVMContextE(ptr noundef nonnull align 8 dereferenceable(8) %0) #1 comdat align 2 {
  %2 = alloca ptr, align 8
  store ptr %0, ptr %2, align 8
  %3 = load ptr, ptr %2, align 8
  %4 = call noundef ptr @_ZN4llvm11PointerType3getERNS_11LLVMContextEj(ptr noundef nonnull align 8 dereferenceable(8) %3, i32 noundef 0)
  ret ptr %4
}

; Function Attrs: mustprogress nounwind uwtable
define linkonce_odr hidden noundef nonnull align 8 dereferenceable(8) ptr @_ZNK4llvm6Module10getContextEv(ptr noundef nonnull align 8 dereferenceable(857) %0) #1 comdat align 2 {
  %2 = alloca ptr, align 8
  store ptr %0, ptr %2, align 8
  %3 = load ptr, ptr %2, align 8
  %4 = getelementptr inbounds nuw %"class.llvm::Module", ptr %3, i32 0, i32 0
  %5 = load ptr, ptr %4, align 8
  ret ptr %5
}

; Function Attrs: mustprogress nounwind uwtable
define linkonce_odr hidden noundef ptr @_ZN4llvm13IRBuilderBase19CreateAddrSpaceCastEPNS_5ValueEPNS_4TypeERKNS_5TwineE(ptr noundef nonnull align 8 dereferenceable(128) %0, ptr noundef %1, ptr noundef %2, ptr noundef nonnull align 8 dereferenceable(34) %3) #1 comdat align 2 {
  %5 = alloca ptr, align 8
  %6 = alloca ptr, align 8
  %7 = alloca ptr, align 8
  %8 = alloca ptr, align 8
  store ptr %0, ptr %5, align 8
  store ptr %1, ptr %6, align 8
  store ptr %2, ptr %7, align 8
  store ptr %3, ptr %8, align 8
  %9 = load ptr, ptr %5, align 8
  %10 = load ptr, ptr %6, align 8
  %11 = load ptr, ptr %7, align 8
  %12 = load ptr, ptr %8, align 8
  %13 = call noundef ptr @_ZN4llvm13IRBuilderBase10CreateCastENS_11Instruction7CastOpsEPNS_5ValueEPNS_4TypeERKNS_5TwineE(ptr noundef nonnull align 8 dereferenceable(128) %9, i32 noundef 50, ptr noundef %10, ptr noundef %11, ptr noundef nonnull align 8 dereferenceable(34) %12)
  ret ptr %13
}

; Function Attrs: mustprogress nounwind uwtable
define linkonce_odr hidden void @_ZN4llvm5TwineC2EPKc(ptr noundef nonnull align 8 dereferenceable(34) %0, ptr noundef %1) unnamed_addr #1 comdat align 2 {
  %3 = alloca ptr, align 8
  %4 = alloca ptr, align 8
  store ptr %0, ptr %3, align 8
  store ptr %1, ptr %4, align 8
  %5 = load ptr, ptr %3, align 8
  %6 = getelementptr inbounds nuw %"class.llvm::Twine", ptr %5, i32 0, i32 2
  store i8 1, ptr %6, align 8
  %7 = getelementptr inbounds nuw %"class.llvm::Twine", ptr %5, i32 0, i32 3
  store i8 1, ptr %7, align 1
  %8 = load ptr, ptr %4, align 8
  %9 = getelementptr inbounds i8, ptr %8, i64 0
  %10 = load i8, ptr %9, align 1
  %11 = sext i8 %10 to i32
  %12 = icmp ne i32 %11, 0
  br i1 %12, label %13, label %17

13:                                               ; preds = %2
  %14 = load ptr, ptr %4, align 8
  %15 = getelementptr inbounds nuw %"class.llvm::Twine", ptr %5, i32 0, i32 0
  store ptr %14, ptr %15, align 8
  %16 = getelementptr inbounds nuw %"class.llvm::Twine", ptr %5, i32 0, i32 2
  store i8 3, ptr %16, align 8
  br label %19

17:                                               ; preds = %2
  %18 = getelementptr inbounds nuw %"class.llvm::Twine", ptr %5, i32 0, i32 2
  store i8 1, ptr %18, align 8
  br label %19

19:                                               ; preds = %17, %13
  ret void
}

; Function Attrs: mustprogress nounwind uwtable
define internal noundef ptr @_ZN12_GLOBAL__N_15NVPTX19vaListParameterTypeERN4llvm6ModuleE(ptr noundef nonnull align 8 dereferenceable(8) %0, ptr noundef nonnull align 8 dereferenceable(857) %1) unnamed_addr #1 align 2 {
  %3 = alloca ptr, align 8
  %4 = alloca ptr, align 8
  store ptr %0, ptr %3, align 8
  store ptr %1, ptr %4, align 8
  %5 = load ptr, ptr %4, align 8
  %6 = call noundef nonnull align 8 dereferenceable(8) ptr @_ZNK4llvm6Module10getContextEv(ptr noundef nonnull align 8 dereferenceable(857) %5)
  %7 = call noundef ptr @_ZN4llvm11PointerType9getUnqualERNS_11LLVMContextE(ptr noundef nonnull align 8 dereferenceable(8) %6)
  ret ptr %7
}

; Function Attrs: mustprogress nounwind uwtable
define internal noundef ptr @_ZN12_GLOBAL__N_15NVPTX16initializeVaListERN4llvm6ModuleERNS1_11LLVMContextERNS1_9IRBuilderINS1_14ConstantFolderENS1_24IRBuilderDefaultInserterEEEPNS1_10AllocaInstEPNS1_5ValueE(ptr noundef nonnull align 8 dereferenceable(8) %0, ptr noundef nonnull align 8 dereferenceable(857) %1, ptr noundef nonnull align 8 dereferenceable(8) %2, ptr noundef nonnull align 8 dereferenceable(144) %3, ptr noundef %4, ptr noundef %5) unnamed_addr #1 align 2 {
  %7 = alloca ptr, align 8
  %8 = alloca ptr, align 8
  %9 = alloca ptr, align 8
  %10 = alloca ptr, align 8
  %11 = alloca ptr, align 8
  %12 = alloca ptr, align 8
  %13 = alloca %"class.llvm::Twine", align 8
  store ptr %0, ptr %7, align 8
  store ptr %1, ptr %8, align 8
  store ptr %2, ptr %9, align 8
  store ptr %3, ptr %10, align 8
  store ptr %4, ptr %11, align 8
  store ptr %5, ptr %12, align 8
  %14 = load ptr, ptr %7, align 8
  %15 = load ptr, ptr %10, align 8
  %16 = load ptr, ptr %12, align 8
  %17 = load ptr, ptr %8, align 8
  %18 = call noundef ptr @_ZN12_GLOBAL__N_15NVPTX19vaListParameterTypeERN4llvm6ModuleE(ptr noundef nonnull align 8 dereferenceable(8) %14, ptr noundef nonnull align 8 dereferenceable(857) %17)
  call void @_ZN4llvm5TwineC2EPKc(ptr noundef nonnull align 8 dereferenceable(34) %13, ptr noundef @.str.15)
  %19 = call noundef ptr @_ZN4llvm13IRBuilderBase19CreateAddrSpaceCastEPNS_5ValueEPNS_4TypeERKNS_5TwineE(ptr noundef nonnull align 8 dereferenceable(128) %15, ptr noundef %16, ptr noundef %18, ptr noundef nonnull align 8 dereferenceable(34) %13)
  ret ptr %19
}