; Function Attrs: mustprogress nounwind uwtable
define internal noundef ptr @_ZN12_GLOBAL__N_15NVPTX16initializeVaListERN4llvm6ModuleERNS1_11LLVMContextERNS1_9IRBuilderINS1_14ConstantFolderENS1_24IRBuilderDefaultInserterEEEPNS1_10AllocaInstEPNS1_5ValueE(ptr nocapture nonnull readnone align 8 %0, ptr nocapture noundef nonnull readonly align 8 dereferenceable(857) %1, ptr nocapture nonnull readnone align 8 %2, ptr noundef nonnull align 8 dereferenceable(144) %3, ptr nocapture readnone %4, ptr noundef %5) unnamed_addr #0 align 2 {
  %7 = alloca %"class.llvm::Twine", align 8
  %8 = load ptr, ptr %1, align 8
  %9 = tail call noundef ptr @_ZN4llvm11PointerType3getERNS_11LLVMContextEj(ptr noundef nonnull align 8 dereferenceable(8) %8, i32 noundef 0) #20
  %10 = getelementptr inbounds nuw i8, ptr %7, i64 32
  store i16 257, ptr %10, align 8
  %11 = call noundef ptr @_ZN4llvm13IRBuilderBase10CreateCastENS_11Instruction7CastOpsEPNS_5ValueEPNS_4TypeERKNS_5TwineE(ptr noundef nonnull align 8 dereferenceable(128) %3, i32 noundef 50, ptr noundef %5, ptr noundef %9, ptr noundef nonnull align 8 dereferenceable(34) %7)
  ret ptr %11
}